; Function Attrs: mustprogress uwtable
define noundef zeroext i1 @_ZN11OpenImageIO6v3_1_012ImageBufAlgo6invertERNS0_8ImageBufERKS2_NS0_3ROIEi(ptr noundef nonnull align 8 dereferenceable(16) %0, ptr noundef nonnull align 8 dereferenceable(16) %1, ptr noundef readonly byval(%"struct.OpenImageIO::v3_1_0::ROI") align 8 captures(none) %2, i32 noundef %3) local_unnamed_addr #5 {
  %5 = alloca %"class.OpenImageIO::v3_1_0::Image_or_Const", align 8
  %6 = alloca %"class.OpenImageIO::v3_1_0::Image_or_Const", align 8
  %7 = alloca float, align 4
  %8 = alloca %"class.OpenImageIO::v3_1_0::Image_or_Const", align 8
  %9 = alloca float, align 4
  store i32 2, ptr %5, align 8, !tbaa !11
  %10 = getelementptr inbounds nuw i8, ptr %5, i64 8
  store ptr %1, ptr %10, align 8, !tbaa !22
  %11 = getelementptr inbounds nuw i8, ptr %5, i64 16
  call void @llvm.memset.p0.i64(ptr noundef nonnull align 8 dereferenceable(16) %11, i8 0, i64 16, i1 false)
  call void @llvm.lifetime.start.p0(i64 4, ptr nonnull %7) #25
  store float -1.000000e+00, ptr %7, align 4, !tbaa !37
  store i32 1, ptr %6, align 8, !tbaa !11
  %12 = getelementptr inbounds nuw i8, ptr %6, i64 8
  store ptr null, ptr %12, align 8, !tbaa !22
  %13 = getelementptr inbounds nuw i8, ptr %6, i64 16
  store ptr %7, ptr %13, align 8, !tbaa !81
  %14 = getelementptr inbounds nuw i8, ptr %6, i64 24
  store i64 1, ptr %14, align 8, !tbaa !82
  call void @llvm.lifetime.start.p0(i64 4, ptr nonnull %9) #25
  store float 1.000000e+00, ptr %9, align 4, !tbaa !37
  store i32 1, ptr %8, align 8, !tbaa !11
  %15 = getelementptr inbounds nuw i8, ptr %8, i64 8
  store ptr null, ptr %15, align 8, !tbaa !22
  %16 = getelementptr inbounds nuw i8, ptr %8, i64 16
  store ptr %9, ptr %16, align 8, !tbaa !81
  %17 = getelementptr inbounds nuw i8, ptr %8, i64 24
  store i64 1, ptr %17, align 8, !tbaa !82
  %18 = call noundef zeroext i1 @_ZN11OpenImageIO6v3_1_012ImageBufAlgo3madERNS0_8ImageBufENS0_14Image_or_ConstES4_S4_NS0_3ROIEi(ptr noundef nonnull align 8 dereferenceable(16) %0, ptr noundef nonnull byval(%"class.OpenImageIO::v3_1_0::Image_or_Const") align 8 %5, ptr noundef nonnull byval(%"class.OpenImageIO::v3_1_0::Image_or_Const") align 8 %6, ptr noundef nonnull byval(%"class.OpenImageIO::v3_1_0::Image_or_Const") align 8 %8, ptr noundef nonnull byval(%"struct.OpenImageIO::v3_1_0::ROI") align 8 %2, i32 noundef %3)
  call void @llvm.lifetime.end.p0(i64 4, ptr nonnull %9) #25
  call void @llvm.lifetime.end.p0(i64 4, ptr nonnull %7) #25
  ret i1 %18
}